target datalayout = "e-m:e-p270:32:32-p271:32:32-p272:64:64-i64:64-i128:128-f80:128-n8:16:32:64-S128"
target triple = "x86_64-unknown-linux-gnu"

%"class.icu_75::UVector" = type { %"class.icu_75::UObject", i32, i32, ptr, ptr, ptr }
%"class.icu_75::UObject" = type { ptr }

; Function Attrs: mustprogress nounwind uwtable
define internal noundef signext i8 @_ZL9U_SUCCESS10UErrorCode(i32 noundef %code) #0 {
entry:
  %code.addr = alloca i32, align 4
  store i32 %code, ptr %code.addr, align 4
  %0 = load i32, ptr %code.addr, align 4
  %cmp = icmp sle i32 %0, 0
  %conv = zext i1 %cmp to i8
  ret i8 %conv
}

; Function Attrs: mustprogress uwtable
define void @_ZN6icu_757UVector4sortEPFi8UElementS1_ER10UErrorCode(ptr noundef nonnull align 8 dereferenceable(40) %this, ptr noundef %compare, ptr noundef nonnull align 4 dereferenceable(4) %ec) #1 align 2 {
entry:
  %this.addr = alloca ptr, align 8
  %compare.addr = alloca ptr, align 8
  %ec.addr = alloca ptr, align 8
  store ptr %this, ptr %this.addr, align 8
  store ptr %compare, ptr %compare.addr, align 8
  store ptr %ec, ptr %ec.addr, align 8
  %this1 = load ptr, ptr %this.addr, align 8
  %0 = load ptr, ptr %ec.addr, align 8
  %1 = load i32, ptr %0, align 4
  %call = call noundef signext i8 @_ZL9U_SUCCESS10UErrorCode(i32 noundef %1)
  %tobool = icmp ne i8 %call, 0
  br i1 %tobool, label %if.then, label %if.end

if.then:                                          ; preds = %entry
  %elements = getelementptr inbounds %"class.icu_75::UVector", ptr %this1, i32 0, i32 3
  %2 = load ptr, ptr %elements, align 8
  %count = getelementptr inbounds %"class.icu_75::UVector", ptr %this1, i32 0, i32 1
  %3 = load i32, ptr %count, align 8
  %4 = load ptr, ptr %ec.addr, align 8
  call void @uprv_sortArray_75(ptr noundef %2, i32 noundef %3, i32 noundef 8, ptr noundef @_ZN6icu_75L14sortComparatorEPKvS1_S1_, ptr noundef %compare.addr, i8 noundef signext 0, ptr noundef %4)
  br label %if.end

if.end:                                           ; preds = %if.then, %entry
  ret void
}