; Function Attrs: mustprogress uwtable
define void @_ZN6icu_757UVector4sortEPFi8UElementS1_ER10UErrorCode(ptr nocapture noundef nonnull readonly align 8 dereferenceable(40) %this, ptr noundef %compare, ptr noundef nonnull align 4 dereferenceable(4) %ec) local_unnamed_addr #1 align 2 {
entry:
  %compare.addr = alloca ptr, align 8
  store ptr %compare, ptr %compare.addr, align 8
  %0 = load i32, ptr %ec, align 4
  %cmp.i = icmp sgt i32 %0, 0
  br i1 %cmp.i, label %if.end, label %if.then

if.then:                                          ; preds = %entry
  %elements = getelementptr inbounds i8, ptr %this, i64 16
  %1 = load ptr, ptr %elements, align 8
  %count = getelementptr inbounds i8, ptr %this, i64 8
  %2 = load i32, ptr %count, align 8
  call void @uprv_sortArray_75(ptr noundef %1, i32 noundef %2, i32 noundef 8, ptr noundef nonnull @_ZN6icu_75L14sortComparatorEPKvS1_S1_, ptr noundef nonnull %compare.addr, i8 noundef signext 0, ptr noundef nonnull %ec)
  br label %if.end

if.end:                                           ; preds = %if.then, %entry
  ret void
}